; Function Attrs: nofree norecurse nosync nounwind memory(read, argmem: readwrite, inaccessiblemem: none) uwtable
define void @densePOTRS(ptr noundef readonly captures(none) %0, i64 noundef %1, ptr noundef captures(none) %2) local_unnamed_addr #1 {
  %4 = add i64 %1, -1
  %5 = icmp sgt i64 %1, 1
  br i1 %5, label %.lr.ph.preheader, label %._crit_edge

.loopexit:                                        ; preds = %.lr.ph
  %exitcond64.not = icmp eq i64 %13, %4
  br i1 %exitcond64.not, label %._crit_edge, label %.lr.ph.preheader, !llvm.loop !34

.lr.ph.preheader:                                 ; preds = %3, %.loopexit
  %.053 = phi i64 [ %13, %.loopexit ], [ 0, %3 ]
  %6 = getelementptr inbounds nuw ptr, ptr %0, i64 %.053
  %7 = load ptr, ptr %6, align 8, !tbaa !16
  %8 = getelementptr inbounds nuw double, ptr %7, i64 %.053
  %9 = load double, ptr %8, align 8, !tbaa !17
  %10 = getelementptr inbounds nuw double, ptr %2, i64 %.053
  %11 = load double, ptr %10, align 8, !tbaa !17
  %12 = fdiv double %11, %9
  store double %12, ptr %10, align 8, !tbaa !17
  %13 = add nuw nsw i64 %.053, 1
  br label %.lr.ph

.lr.ph:                                           ; preds = %.lr.ph.preheader, %.lr.ph
  %.04952 = phi i64 [ %21, %.lr.ph ], [ %13, %.lr.ph.preheader ]
  %14 = load double, ptr %10, align 8, !tbaa !17
  %15 = getelementptr inbounds nuw double, ptr %7, i64 %.04952
  %16 = load double, ptr %15, align 8, !tbaa !17
  %17 = getelementptr inbounds nuw double, ptr %2, i64 %.04952
  %18 = load double, ptr %17, align 8, !tbaa !17
  %19 = fneg double %14
  %20 = tail call double @llvm.fmuladd.f64(double %19, double %16, double %18)
  store double %20, ptr %17, align 8, !tbaa !17
  %21 = add nuw nsw i64 %.04952, 1
  %exitcond.not = icmp eq i64 %21, %1
  br i1 %exitcond.not, label %.loopexit, label %.lr.ph, !llvm.loop !35

._crit_edge:                                      ; preds = %.loopexit, %3
  %22 = getelementptr inbounds ptr, ptr %0, i64 %4
  %23 = load ptr, ptr %22, align 8, !tbaa !16
  %24 = getelementptr inbounds double, ptr %23, i64 %4
  %25 = load double, ptr %24, align 8, !tbaa !17
  %26 = getelementptr inbounds double, ptr %2, i64 %4
  %27 = load double, ptr %26, align 8, !tbaa !17
  %28 = fdiv double %27, %25
  store double %28, ptr %26, align 8, !tbaa !17
  %29 = load double, ptr %24, align 8, !tbaa !17
  %30 = fdiv double %28, %29
  store double %30, ptr %26, align 8, !tbaa !17
  br i1 %5, label %.lr.ph62.preheader, label %._crit_edge63

.lr.ph62.preheader:                               ; preds = %._crit_edge
  %31 = add nsw i64 %1, -2
  br label %.lr.ph62

.lr.ph62:                                         ; preds = %.lr.ph62.preheader, %._crit_edge59
  %.15060 = phi i64 [ %48, %._crit_edge59 ], [ %31, %.lr.ph62.preheader ]
  %32 = getelementptr inbounds nuw ptr, ptr %0, i64 %.15060
  %33 = load ptr, ptr %32, align 8, !tbaa !16
  %.155 = add nuw nsw i64 %.15060, 1
  %34 = icmp slt i64 %.155, %1
  %35 = getelementptr inbounds nuw double, ptr %2, i64 %.15060
  %.promoted = load double, ptr %35, align 8, !tbaa !17
  br i1 %34, label %.lr.ph58, label %._crit_edge59

.lr.ph58:                                         ; preds = %.lr.ph62, %.lr.ph58
  %36 = phi double [ %42, %.lr.ph58 ], [ %.promoted, %.lr.ph62 ]
  %.156 = phi i64 [ %.1, %.lr.ph58 ], [ %.155, %.lr.ph62 ]
  %37 = getelementptr inbounds nuw double, ptr %33, i64 %.156
  %38 = load double, ptr %37, align 8, !tbaa !17
  %39 = getelementptr inbounds nuw double, ptr %2, i64 %.156
  %40 = load double, ptr %39, align 8, !tbaa !17
  %41 = fneg double %38
  %42 = tail call double @llvm.fmuladd.f64(double %41, double %40, double %36)
  store double %42, ptr %35, align 8, !tbaa !17
  %.1 = add nuw nsw i64 %.156, 1
  %exitcond65.not = icmp eq i64 %.1, %1
  br i1 %exitcond65.not, label %._crit_edge59, label %.lr.ph58, !llvm.loop !36

._crit_edge59:                                    ; preds = %.lr.ph58, %.lr.ph62
  %43 = phi double [ %.promoted, %.lr.ph62 ], [ %42, %.lr.ph58 ]
  %44 = getelementptr inbounds nuw double, ptr %33, i64 %.15060
  %45 = load double, ptr %44, align 8, !tbaa !17
  %46 = getelementptr inbounds nuw double, ptr %2, i64 %.15060
  %47 = fdiv double %43, %45
  store double %47, ptr %46, align 8, !tbaa !17
  %48 = add nsw i64 %.15060, -1
  %49 = icmp sgt i64 %.15060, 0
  br i1 %49, label %.lr.ph62, label %._crit_edge63, !llvm.loop !37

._crit_edge63:                                    ; preds = %._crit_edge59, %._crit_edge
  ret void
}